; ModuleID = '6/1606.c'
source_filename = "6/1606.c"
target datalayout = "e-m:e-p270:32:32-p271:32:32-p272:64:64-i64:64-f80:128-n8:16:32:64-S128"
target triple = "x86_64-pc-linux-gnu"

@.str = private unnamed_addr constant [3 x i8] c"%d\00", align 1
@.str.1 = private unnamed_addr constant [4 x i8] c"%d\0A\00", align 1

; Function Attrs: noinline nounwind uwtable
define dso_local i32 @main() #0 {
  %1 = alloca i32, align 4
  %2 = alloca i32, align 4
  %3 = alloca i32, align 4
  %4 = alloca i32, align 4
  %5 = alloca i32, align 4
  %6 = alloca i32, align 4
  %7 = alloca i32, align 4
  %8 = alloca i32, align 4
  %9 = alloca [100 x i32], align 16
  %10 = alloca [100 x [100 x i32]], align 16
  store i32 0, i32* %1, align 4
  store i32 0, i32* %6, align 4
  store i32 0, i32* %4, align 4
  %11 = call i32 (i8*, ...) @__isoc99_scanf(i8* getelementptr inbounds ([3 x i8], [3 x i8]* @.str, i64 0, i64 0), i32* %7)
  store i32 0, i32* %8, align 4
  br label %12

12:                                               ; preds = %99, %0
  %13 = load i32, i32* %8, align 4
  %14 = load i32, i32* %7, align 4
  %15 = icmp slt i32 %13, %14
  br i1 %15, label %16, label %102

16:                                               ; preds = %12
  %17 = call i32 (i8*, ...) @__isoc99_scanf(i8* getelementptr inbounds ([3 x i8], [3 x i8]* @.str, i64 0, i64 0), i32* %5)
  %18 = call i32 (i8*, ...) @__isoc99_scanf(i8* getelementptr inbounds ([3 x i8], [3 x i8]* @.str, i64 0, i64 0), i32* %2)
  store i32 0, i32* %4, align 4
  br label %19

19:                                               ; preds = %40, %16
  %20 = load i32, i32* %4, align 4
  %21 = load i32, i32* %5, align 4
  %22 = icmp slt i32 %20, %21
  br i1 %22, label %23, label %43

23:                                               ; preds = %19
  store i32 0, i32* %3, align 4
  br label %24

24:                                               ; preds = %36, %23
  %25 = load i32, i32* %3, align 4
  %26 = load i32, i32* %2, align 4
  %27 = icmp slt i32 %25, %26
  br i1 %27, label %28, label %39

28:                                               ; preds = %24
  %29 = load i32, i32* %4, align 4
  %30 = sext i32 %29 to i64
  %31 = getelementptr inbounds [100 x [100 x i32]], [100 x [100 x i32]]* %10, i64 0, i64 %30
  %32 = load i32, i32* %3, align 4
  %33 = sext i32 %32 to i64
  %34 = getelementptr inbounds [100 x i32], [100 x i32]* %31, i64 0, i64 %33
  %35 = call i32 (i8*, ...) @__isoc99_scanf(i8* getelementptr inbounds ([3 x i8], [3 x i8]* @.str, i64 0, i64 0), i32* %34)
  br label %36

36:                                               ; preds = %28
  %37 = load i32, i32* %3, align 4
  %38 = add nsw i32 %37, 1
  store i32 %38, i32* %3, align 4
  br label %24

39:                                               ; preds = %24
  br label %40

40:                                               ; preds = %39
  %41 = load i32, i32* %4, align 4
  %42 = add nsw i32 %41, 1
  store i32 %42, i32* %4, align 4
  br label %19

43:                                               ; preds = %19
  store i32 0, i32* %3, align 4
  br label %44

44:                                               ; preds = %65, %43
  %45 = load i32, i32* %3, align 4
  %46 = load i32, i32* %2, align 4
  %47 = icmp slt i32 %45, %46
  br i1 %47, label %48, label %68

48:                                               ; preds = %44
  %49 = load i32, i32* %6, align 4
  %50 = getelementptr inbounds [100 x [100 x i32]], [100 x [100 x i32]]* %10, i64 0, i64 0
  %51 = load i32, i32* %3, align 4
  %52 = sext i32 %51 to i64
  %53 = getelementptr inbounds [100 x i32], [100 x i32]* %50, i64 0, i64 %52
  %54 = load i32, i32* %53, align 4
  %55 = add nsw i32 %49, %54
  %56 = load i32, i32* %5, align 4
  %57 = sub nsw i32 %56, 1
  %58 = sext i32 %57 to i64
  %59 = getelementptr inbounds [100 x [100 x i32]], [100 x [100 x i32]]* %10, i64 0, i64 %58
  %60 = load i32, i32* %3, align 4
  %61 = sext i32 %60 to i64
  %62 = getelementptr inbounds [100 x i32], [100 x i32]* %59, i64 0, i64 %61
  %63 = load i32, i32* %62, align 4
  %64 = add nsw i32 %55, %63
  store i32 %64, i32* %6, align 4
  br label %65

65:                                               ; preds = %48
  %66 = load i32, i32* %3, align 4
  %67 = add nsw i32 %66, 1
  store i32 %67, i32* %3, align 4
  br label %44

68:                                               ; preds = %44
  store i32 1, i32* %4, align 4
  br label %69

69:                                               ; preds = %91, %68
  %70 = load i32, i32* %4, align 4
  %71 = load i32, i32* %5, align 4
  %72 = sub nsw i32 %71, 1
  %73 = icmp slt i32 %70, %72
  br i1 %73, label %74, label %94

74:                                               ; preds = %69
  %75 = load i32, i32* %6, align 4
  %76 = load i32, i32* %4, align 4
  %77 = sext i32 %76 to i64
  %78 = getelementptr inbounds [100 x [100 x i32]], [100 x [100 x i32]]* %10, i64 0, i64 %77
  %79 = getelementptr inbounds [100 x i32], [100 x i32]* %78, i64 0, i64 0
  %80 = load i32, i32* %79, align 16
  %81 = add nsw i32 %75, %80
  %82 = load i32, i32* %4, align 4
  %83 = sext i32 %82 to i64
  %84 = getelementptr inbounds [100 x [100 x i32]], [100 x [100 x i32]]* %10, i64 0, i64 %83
  %85 = load i32, i32* %2, align 4
  %86 = sub nsw i32 %85, 1
  %87 = sext i32 %86 to i64
  %88 = getelementptr inbounds [100 x i32], [100 x i32]* %84, i64 0, i64 %87
  %89 = load i32, i32* %88, align 4
  %90 = add nsw i32 %81, %89
  store i32 %90, i32* %6, align 4
  br label %91

91:                                               ; preds = %74
  %92 = load i32, i32* %4, align 4
  %93 = add nsw i32 %92, 1
  store i32 %93, i32* %4, align 4
  br label %69

94:                                               ; preds = %69
  %95 = load i32, i32* %6, align 4
  %96 = load i32, i32* %8, align 4
  %97 = sext i32 %96 to i64
  %98 = getelementptr inbounds [100 x i32], [100 x i32]* %9, i64 0, i64 %97
  store i32 %95, i32* %98, align 4
  store i32 0, i32* %6, align 4
  br label %99

99:                                               ; preds = %94
  %100 = load i32, i32* %8, align 4
  %101 = add nsw i32 %100, 1
  store i32 %101, i32* %8, align 4
  br label %12

102:                                              ; preds = %12
  store i32 0, i32* %8, align 4
  br label %103

103:                                              ; preds = %113, %102
  %104 = load i32, i32* %8, align 4
  %105 = load i32, i32* %7, align 4
  %106 = icmp slt i32 %104, %105
  br i1 %106, label %107, label %116

107:                                              ; preds = %103
  %108 = load i32, i32* %8, align 4
  %109 = sext i32 %108 to i64
  %110 = getelementptr inbounds [100 x i32], [100 x i32]* %9, i64 0, i64 %109
  %111 = load i32, i32* %110, align 4
  %112 = call i32 (i8*, ...) @printf(i8* getelementptr inbounds ([4 x i8], [4 x i8]* @.str.1, i64 0, i64 0), i32 %111)
  br label %113

113:                                              ; preds = %107
  %114 = load i32, i32* %8, align 4
  %115 = add nsw i32 %114, 1
  store i32 %115, i32* %8, align 4
  br label %103

116:                                              ; preds = %103
  ret i32 0
}

declare dso_local i32 @__isoc99_scanf(i8*, ...) #1

declare dso_local i32 @printf(i8*, ...) #1


!llvm.module.flags = !{!0}
!llvm.ident = !{!1}

!0 = !{i32 1, !"wchar_size", i32 4}
!1 = !{!"clang version 10.0.0-4ubuntu1 "}
